target datalayout = "e-m:e-p270:32:32-p271:32:32-p272:64:64-i64:64-i128:128-f80:128-n8:16:32:64-S128"
target triple = "x86_64-pc-linux-gnu"

%struct.GetByteContext = type { ptr, ptr, ptr }

; Function Attrs: alwaysinline nounwind willreturn memory(none) uwtable
define internal zeroext i16 @av_bswap16(i16 noundef zeroext %0) #3 {
  %2 = alloca i16, align 2
  store i16 %0, ptr %2, align 2, !tbaa !115
  %3 = load i16, ptr %2, align 2, !tbaa !115
  %4 = zext i16 %3 to i32
  %5 = ashr i32 %4, 8
  %6 = load i16, ptr %2, align 2, !tbaa !115
  %7 = zext i16 %6 to i32
  %8 = shl i32 %7, 8
  %9 = or i32 %5, %8
  %10 = trunc i32 %9 to i16
  store i16 %10, ptr %2, align 2, !tbaa !115
  %11 = load i16, ptr %2, align 2, !tbaa !115
  ret i16 %11
}

; Function Attrs: alwaysinline nounwind uwtable
define internal i32 @bytestream_get_be16(ptr noundef %0) #5 {
  %2 = alloca ptr, align 8
  store ptr %0, ptr %2, align 8, !tbaa !124
  %3 = load ptr, ptr %2, align 8, !tbaa !124
  %4 = load ptr, ptr %3, align 8, !tbaa !45
  %5 = getelementptr inbounds i8, ptr %4, i64 2
  store ptr %5, ptr %3, align 8, !tbaa !45
  %6 = load ptr, ptr %2, align 8, !tbaa !124
  %7 = load ptr, ptr %6, align 8, !tbaa !45
  %8 = getelementptr inbounds i8, ptr %7, i64 -2
  %9 = load i16, ptr %8, align 1, !tbaa !34
  %10 = call zeroext i16 @av_bswap16(i16 noundef zeroext %9) #10
  %11 = zext i16 %10 to i32
  ret i32 %11
}

; Function Attrs: alwaysinline nounwind uwtable
define internal i32 @bytestream_get_byte(ptr noundef %0) #5 {
  %2 = alloca ptr, align 8
  store ptr %0, ptr %2, align 8, !tbaa !124
  %3 = load ptr, ptr %2, align 8, !tbaa !124
  %4 = load ptr, ptr %3, align 8, !tbaa !45
  %5 = getelementptr inbounds i8, ptr %4, i64 1
  store ptr %5, ptr %3, align 8, !tbaa !45
  %6 = load ptr, ptr %2, align 8, !tbaa !124
  %7 = load ptr, ptr %6, align 8, !tbaa !45
  %8 = getelementptr inbounds i8, ptr %7, i64 -1
  %9 = getelementptr inbounds i8, ptr %8, i64 0
  %10 = load i8, ptr %9, align 1, !tbaa !34
  %11 = zext i8 %10 to i32
  ret i32 %11
}

; Function Attrs: alwaysinline nounwind uwtable
define internal i32 @bytestream_get_be24(ptr noundef %0) #5 {
  %2 = alloca ptr, align 8
  store ptr %0, ptr %2, align 8, !tbaa !124
  %3 = load ptr, ptr %2, align 8, !tbaa !124
  %4 = load ptr, ptr %3, align 8, !tbaa !45
  %5 = getelementptr inbounds i8, ptr %4, i64 3
  store ptr %5, ptr %3, align 8, !tbaa !45
  %6 = load ptr, ptr %2, align 8, !tbaa !124
  %7 = load ptr, ptr %6, align 8, !tbaa !45
  %8 = getelementptr inbounds i8, ptr %7, i64 -3
  %9 = getelementptr inbounds i8, ptr %8, i64 0
  %10 = load i8, ptr %9, align 1, !tbaa !34
  %11 = zext i8 %10 to i32
  %12 = shl i32 %11, 16
  %13 = load ptr, ptr %2, align 8, !tbaa !124
  %14 = load ptr, ptr %13, align 8, !tbaa !45
  %15 = getelementptr inbounds i8, ptr %14, i64 -3
  %16 = getelementptr inbounds i8, ptr %15, i64 1
  %17 = load i8, ptr %16, align 1, !tbaa !34
  %18 = zext i8 %17 to i32
  %19 = shl i32 %18, 8
  %20 = or i32 %12, %19
  %21 = load ptr, ptr %2, align 8, !tbaa !124
  %22 = load ptr, ptr %21, align 8, !tbaa !45
  %23 = getelementptr inbounds i8, ptr %22, i64 -3
  %24 = getelementptr inbounds i8, ptr %23, i64 2
  %25 = load i8, ptr %24, align 1, !tbaa !34
  %26 = zext i8 %25 to i32
  %27 = or i32 %20, %26
  ret i32 %27
}

; Function Attrs: alwaysinline nounwind uwtable
define internal i32 @bytestream2_get_be16u(ptr noundef %0) #5 {
  %2 = alloca ptr, align 8
  store ptr %0, ptr %2, align 8, !tbaa !55
  %3 = load ptr, ptr %2, align 8, !tbaa !55
  %4 = getelementptr inbounds nuw %struct.GetByteContext, ptr %3, i32 0, i32 0
  %5 = call i32 @bytestream_get_be16(ptr noundef %4)
  ret i32 %5
}

; Function Attrs: alwaysinline nounwind uwtable
define internal i32 @bytestream2_get_byteu(ptr noundef %0) #5 {
  %2 = alloca ptr, align 8
  store ptr %0, ptr %2, align 8, !tbaa !55
  %3 = load ptr, ptr %2, align 8, !tbaa !55
  %4 = getelementptr inbounds nuw %struct.GetByteContext, ptr %3, i32 0, i32 0
  %5 = call i32 @bytestream_get_byte(ptr noundef %4)
  ret i32 %5
}

; Function Attrs: alwaysinline nounwind uwtable
define internal i32 @bytestream2_get_be24u(ptr noundef %0) #5 {
  %2 = alloca ptr, align 8
  store ptr %0, ptr %2, align 8, !tbaa !55
  %3 = load ptr, ptr %2, align 8, !tbaa !55
  %4 = getelementptr inbounds nuw %struct.GetByteContext, ptr %3, i32 0, i32 0
  %5 = call i32 @bytestream_get_be24(ptr noundef %4)
  ret i32 %5
}

; Function Attrs: alwaysinline nounwind uwtable
define internal i32 @bytestream2_get_be16(ptr noundef %0) #5 {
  %2 = alloca i32, align 4
  %3 = alloca ptr, align 8
  store ptr %0, ptr %3, align 8, !tbaa !55
  %4 = load ptr, ptr %3, align 8, !tbaa !55
  %5 = getelementptr inbounds nuw %struct.GetByteContext, ptr %4, i32 0, i32 1
  %6 = load ptr, ptr %5, align 8, !tbaa !128
  %7 = load ptr, ptr %3, align 8, !tbaa !55
  %8 = getelementptr inbounds nuw %struct.GetByteContext, ptr %7, i32 0, i32 0
  %9 = load ptr, ptr %8, align 8, !tbaa !125
  %10 = ptrtoint ptr %6 to i64
  %11 = ptrtoint ptr %9 to i64
  %12 = sub i64 %10, %11
  %13 = icmp slt i64 %12, 2
  br i1 %13, label %14, label %20

14:                                               ; preds = %1
  %15 = load ptr, ptr %3, align 8, !tbaa !55
  %16 = getelementptr inbounds nuw %struct.GetByteContext, ptr %15, i32 0, i32 1
  %17 = load ptr, ptr %16, align 8, !tbaa !128
  %18 = load ptr, ptr %3, align 8, !tbaa !55
  %19 = getelementptr inbounds nuw %struct.GetByteContext, ptr %18, i32 0, i32 0
  store ptr %17, ptr %19, align 8, !tbaa !125
  store i32 0, ptr %2, align 4
  br label %23

20:                                               ; preds = %1
  %21 = load ptr, ptr %3, align 8, !tbaa !55
  %22 = call i32 @bytestream2_get_be16u(ptr noundef %21)
  store i32 %22, ptr %2, align 4
  br label %23

23:                                               ; preds = %20, %14
  %24 = load i32, ptr %2, align 4
  ret i32 %24
}

; Function Attrs: alwaysinline nounwind uwtable
define internal i32 @bytestream2_get_byte(ptr noundef %0) #5 {
  %2 = alloca i32, align 4
  %3 = alloca ptr, align 8
  store ptr %0, ptr %3, align 8, !tbaa !55
  %4 = load ptr, ptr %3, align 8, !tbaa !55
  %5 = getelementptr inbounds nuw %struct.GetByteContext, ptr %4, i32 0, i32 1
  %6 = load ptr, ptr %5, align 8, !tbaa !128
  %7 = load ptr, ptr %3, align 8, !tbaa !55
  %8 = getelementptr inbounds nuw %struct.GetByteContext, ptr %7, i32 0, i32 0
  %9 = load ptr, ptr %8, align 8, !tbaa !125
  %10 = ptrtoint ptr %6 to i64
  %11 = ptrtoint ptr %9 to i64
  %12 = sub i64 %10, %11
  %13 = icmp slt i64 %12, 1
  br i1 %13, label %14, label %20

14:                                               ; preds = %1
  %15 = load ptr, ptr %3, align 8, !tbaa !55
  %16 = getelementptr inbounds nuw %struct.GetByteContext, ptr %15, i32 0, i32 1
  %17 = load ptr, ptr %16, align 8, !tbaa !128
  %18 = load ptr, ptr %3, align 8, !tbaa !55
  %19 = getelementptr inbounds nuw %struct.GetByteContext, ptr %18, i32 0, i32 0
  store ptr %17, ptr %19, align 8, !tbaa !125
  store i32 0, ptr %2, align 4
  br label %23

20:                                               ; preds = %1
  %21 = load ptr, ptr %3, align 8, !tbaa !55
  %22 = call i32 @bytestream2_get_byteu(ptr noundef %21)
  store i32 %22, ptr %2, align 4
  br label %23

23:                                               ; preds = %20, %14
  %24 = load i32, ptr %2, align 4
  ret i32 %24
}

; Function Attrs: alwaysinline nounwind uwtable
define internal i32 @bytestream2_get_be24(ptr noundef %0) #5 {
  %2 = alloca i32, align 4
  %3 = alloca ptr, align 8
  store ptr %0, ptr %3, align 8, !tbaa !55
  %4 = load ptr, ptr %3, align 8, !tbaa !55
  %5 = getelementptr inbounds nuw %struct.GetByteContext, ptr %4, i32 0, i32 1
  %6 = load ptr, ptr %5, align 8, !tbaa !128
  %7 = load ptr, ptr %3, align 8, !tbaa !55
  %8 = getelementptr inbounds nuw %struct.GetByteContext, ptr %7, i32 0, i32 0
  %9 = load ptr, ptr %8, align 8, !tbaa !125
  %10 = ptrtoint ptr %6 to i64
  %11 = ptrtoint ptr %9 to i64
  %12 = sub i64 %10, %11
  %13 = icmp slt i64 %12, 3
  br i1 %13, label %14, label %20

14:                                               ; preds = %1
  %15 = load ptr, ptr %3, align 8, !tbaa !55
  %16 = getelementptr inbounds nuw %struct.GetByteContext, ptr %15, i32 0, i32 1
  %17 = load ptr, ptr %16, align 8, !tbaa !128
  %18 = load ptr, ptr %3, align 8, !tbaa !55
  %19 = getelementptr inbounds nuw %struct.GetByteContext, ptr %18, i32 0, i32 0
  store ptr %17, ptr %19, align 8, !tbaa !125
  store i32 0, ptr %2, align 4
  br label %23

20:                                               ; preds = %1
  %21 = load ptr, ptr %3, align 8, !tbaa !55
  %22 = call i32 @bytestream2_get_be24u(ptr noundef %21)
  store i32 %22, ptr %2, align 4
  br label %23

23:                                               ; preds = %20, %14
  %24 = load i32, ptr %2, align 4
  ret i32 %24
}

; Function Attrs: alwaysinline nounwind uwtable
define internal i32 @bytestream2_get_bytes_left(ptr noundef %0) #5 {
  %2 = alloca ptr, align 8
  store ptr %0, ptr %2, align 8, !tbaa !55
  %3 = load ptr, ptr %2, align 8, !tbaa !55
  %4 = getelementptr inbounds nuw %struct.GetByteContext, ptr %3, i32 0, i32 1
  %5 = load ptr, ptr %4, align 8, !tbaa !128
  %6 = load ptr, ptr %2, align 8, !tbaa !55
  %7 = getelementptr inbounds nuw %struct.GetByteContext, ptr %6, i32 0, i32 0
  %8 = load ptr, ptr %7, align 8, !tbaa !125
  %9 = ptrtoint ptr %5 to i64
  %10 = ptrtoint ptr %8 to i64
  %11 = sub i64 %9, %10
  %12 = trunc i64 %11 to i32
  ret i32 %12
}

; Function Attrs: nounwind uwtable
define internal void @decode_rgb8(ptr noundef %0, ptr noundef %1, i32 noundef %2, i32 noundef %3, i32 noundef %4) #1 {
  %6 = alloca ptr, align 8
  %7 = alloca ptr, align 8
  %8 = alloca i32, align 4
  %9 = alloca i32, align 4
  %10 = alloca i32, align 4
  %11 = alloca i32, align 4
  %12 = alloca i32, align 4
  %13 = alloca i32, align 4
  %14 = alloca i32, align 4
  %15 = alloca i32, align 4
  %16 = alloca i32, align 4
  store ptr %0, ptr %6, align 8, !tbaa !55
  store ptr %1, ptr %7, align 8, !tbaa !45
  store i32 %2, ptr %8, align 4, !tbaa !35
  store i32 %3, ptr %9, align 4, !tbaa !35
  store i32 %4, ptr %10, align 4, !tbaa !35
  call void @llvm.lifetime.start.p0(i64 4, ptr %11) #9
  store i32 0, ptr %11, align 4, !tbaa !35
  call void @llvm.lifetime.start.p0(i64 4, ptr %12) #9
  store i32 0, ptr %12, align 4, !tbaa !35
  call void @llvm.lifetime.start.p0(i64 4, ptr %13) #9
  call void @llvm.lifetime.start.p0(i64 4, ptr %14) #9
  br label %17

17:                                               ; preds = %80, %5
  %18 = load ptr, ptr %6, align 8, !tbaa !55
  %19 = call i32 @bytestream2_get_bytes_left(ptr noundef %18)
  %20 = icmp sge i32 %19, 4
  br i1 %20, label %21, label %81

21:                                               ; preds = %17
  call void @llvm.lifetime.start.p0(i64 4, ptr %15) #9
  %22 = load ptr, ptr %6, align 8, !tbaa !55
  %23 = call i32 @bytestream2_get_be24(ptr noundef %22)
  %24 = or i32 -16777216, %23
  store i32 %24, ptr %15, align 4, !tbaa !35
  %25 = load ptr, ptr %6, align 8, !tbaa !55
  %26 = call i32 @bytestream2_get_byte(ptr noundef %25)
  %27 = and i32 %26, 127
  store i32 %27, ptr %14, align 4, !tbaa !35
  %28 = load i32, ptr %14, align 4, !tbaa !35
  %29 = icmp ne i32 %28, 0
  br i1 %29, label %43, label %30

30:                                               ; preds = %21
  %31 = load ptr, ptr %6, align 8, !tbaa !55
  %32 = call i32 @bytestream2_get_byte(ptr noundef %31)
  store i32 %32, ptr %14, align 4, !tbaa !35
  %33 = load i32, ptr %14, align 4, !tbaa !35
  %34 = icmp ne i32 %33, 0
  br i1 %34, label %42, label %35

35:                                               ; preds = %30
  %36 = load ptr, ptr %6, align 8, !tbaa !55
  %37 = call i32 @bytestream2_get_be16(ptr noundef %36)
  store i32 %37, ptr %14, align 4, !tbaa !35
  %38 = load i32, ptr %14, align 4, !tbaa !35
  %39 = icmp ne i32 %38, 0
  br i1 %39, label %41, label %40

40:                                               ; preds = %35
  store i32 1, ptr %16, align 4
  br label %78

41:                                               ; preds = %35
  br label %42

42:                                               ; preds = %41, %30
  br label %43

43:                                               ; preds = %42, %21
  store i32 0, ptr %13, align 4, !tbaa !35
  br label %44

44:                                               ; preds = %74, %43
  %45 = load i32, ptr %13, align 4, !tbaa !35
  %46 = load i32, ptr %14, align 4, !tbaa !35
  %47 = icmp slt i32 %45, %46
  br i1 %47, label %48, label %77

48:                                               ; preds = %44
  %49 = load i32, ptr %15, align 4, !tbaa !35
  %50 = load ptr, ptr %7, align 8, !tbaa !45
  %51 = load i32, ptr %12, align 4, !tbaa !35
  %52 = load i32, ptr %10, align 4, !tbaa !35
  %53 = mul nsw i32 %51, %52
  %54 = sext i32 %53 to i64
  %55 = getelementptr inbounds i8, ptr %50, i64 %54
  %56 = load i32, ptr %11, align 4, !tbaa !35
  %57 = sext i32 %56 to i64
  %58 = mul i64 %57, 4
  %59 = getelementptr inbounds nuw i8, ptr %55, i64 %58
  store i32 %49, ptr %59, align 4, !tbaa !35
  %60 = load i32, ptr %11, align 4, !tbaa !35
  %61 = add nsw i32 %60, 1
  store i32 %61, ptr %11, align 4, !tbaa !35
  %62 = load i32, ptr %11, align 4, !tbaa !35
  %63 = load i32, ptr %8, align 4, !tbaa !35
  %64 = icmp sge i32 %62, %63
  br i1 %64, label %65, label %73

65:                                               ; preds = %48
  %66 = load i32, ptr %12, align 4, !tbaa !35
  %67 = add nsw i32 %66, 1
  store i32 %67, ptr %12, align 4, !tbaa !35
  %68 = load i32, ptr %12, align 4, !tbaa !35
  %69 = load i32, ptr %9, align 4, !tbaa !35
  %70 = icmp sge i32 %68, %69
  br i1 %70, label %71, label %72

71:                                               ; preds = %65
  store i32 1, ptr %16, align 4
  br label %78

72:                                               ; preds = %65
  store i32 0, ptr %11, align 4, !tbaa !35
  br label %73

73:                                               ; preds = %72, %48
  br label %74

74:                                               ; preds = %73
  %75 = load i32, ptr %13, align 4, !tbaa !35
  %76 = add nsw i32 %75, 1
  store i32 %76, ptr %13, align 4, !tbaa !35
  br label %44, !llvm.loop !152

77:                                               ; preds = %44
  store i32 0, ptr %16, align 4
  br label %78

78:                                               ; preds = %77, %71, %40
  call void @llvm.lifetime.end.p0(i64 4, ptr %15) #9
  %79 = load i32, ptr %16, align 4
  switch i32 %79, label %82 [
    i32 0, label %80
  ]

80:                                               ; preds = %78
  br label %17, !llvm.loop !153

81:                                               ; preds = %17
  store i32 0, ptr %16, align 4
  br label %82

82:                                               ; preds = %81, %78
  call void @llvm.lifetime.end.p0(i64 4, ptr %14) #9
  call void @llvm.lifetime.end.p0(i64 4, ptr %13) #9
  call void @llvm.lifetime.end.p0(i64 4, ptr %12) #9
  call void @llvm.lifetime.end.p0(i64 4, ptr %11) #9
  %83 = load i32, ptr %16, align 4
  switch i32 %83, label %85 [
    i32 0, label %84
    i32 1, label %84
  ]

84:                                               ; preds = %82, %82
  ret void

85:                                               ; preds = %82
  unreachable
}