; Function Attrs: nofree norecurse nosync nounwind memory(read, argmem: readwrite, inaccessiblemem: none) uwtable
define internal fastcc void @decode_rgb8(ptr noundef nonnull captures(none) %0, ptr noundef writeonly captures(none) %1, i32 noundef %2, i32 noundef %3, i32 noundef %4) unnamed_addr #7 {
  %6 = getelementptr inbounds nuw i8, ptr %0, i64 8
  %7 = load ptr, ptr %6, align 8, !tbaa !66
  %8 = ptrtoint ptr %7 to i64
  %.promoted = load ptr, ptr %0, align 8, !tbaa !40
  %9 = ptrtoint ptr %.promoted to i64
  %10 = sub i64 %8, %9
  %11 = trunc i64 %10 to i32
  %12 = icmp sgt i32 %11, 3
  br i1 %12, label %.lr.ph64, label %.thread

.loopexit:                                        ; preds = %66, %55
  %.227.lcssa = phi i32 [ %.02562, %55 ], [ %.328, %66 ]
  %.2.lcssa = phi i32 [ %.02263, %55 ], [ %.3, %66 ]
  %13 = ptrtoint ptr %56 to i64
  %14 = sub i64 %8, %13
  %15 = trunc i64 %14 to i32
  %16 = icmp sgt i32 %15, 3
  br i1 %16, label %.lr.ph64, label %.thread, !llvm.loop !164

.lr.ph64:                                         ; preds = %5, %.loopexit
  %17 = phi i64 [ %14, %.loopexit ], [ %10, %5 ]
  %.02263 = phi i32 [ %.2.lcssa, %.loopexit ], [ 0, %5 ]
  %.02562 = phi i32 [ %.227.lcssa, %.loopexit ], [ 0, %5 ]
  %18 = phi ptr [ %56, %.loopexit ], [ %.promoted, %5 ]
  %19 = icmp slt i64 %17, 3
  br i1 %19, label %bytestream2_get_be24.exit, label %20

20:                                               ; preds = %.lr.ph64
  %21 = getelementptr inbounds nuw i8, ptr %18, i64 3
  store ptr %21, ptr %0, align 8, !tbaa !40
  %22 = load i8, ptr %18, align 1, !tbaa !30
  %23 = zext i8 %22 to i32
  %24 = shl nuw nsw i32 %23, 16
  %25 = getelementptr inbounds nuw i8, ptr %18, i64 1
  %26 = load i8, ptr %25, align 1, !tbaa !30
  %27 = zext i8 %26 to i32
  %28 = shl nuw nsw i32 %27, 8
  %29 = getelementptr inbounds nuw i8, ptr %18, i64 2
  %30 = load i8, ptr %29, align 1, !tbaa !30
  %31 = zext i8 %30 to i32
  %32 = or disjoint i32 %24, %28
  %33 = or disjoint i32 %32, %31
  %34 = or disjoint i32 %33, -16777216
  %.pre = ptrtoint ptr %21 to i64
  br label %bytestream2_get_be24.exit

bytestream2_get_be24.exit:                        ; preds = %.lr.ph64, %20
  %.pre-phi = phi i64 [ %.pre, %20 ], [ %8, %.lr.ph64 ]
  %35 = phi ptr [ %21, %20 ], [ %7, %.lr.ph64 ]
  %.0.i42 = phi i32 [ %34, %20 ], [ -16777216, %.lr.ph64 ]
  %36 = sub i64 %8, %.pre-phi
  %37 = icmp slt i64 %36, 1
  br i1 %37, label %bytestream2_get_byte.exit.thread, label %bytestream2_get_byte.exit

bytestream2_get_byte.exit:                        ; preds = %bytestream2_get_be24.exit
  %38 = getelementptr inbounds nuw i8, ptr %35, i64 1
  store ptr %38, ptr %0, align 8, !tbaa !40
  %39 = load i8, ptr %35, align 1, !tbaa !30
  %40 = and i8 %39, 127
  %41 = zext nneg i8 %40 to i32
  %.not = icmp eq i8 %40, 0
  br i1 %.not, label %bytestream2_get_byte.exit._crit_edge, label %55

bytestream2_get_byte.exit._crit_edge:             ; preds = %bytestream2_get_byte.exit
  %.pre67 = ptrtoint ptr %38 to i64
  br label %bytestream2_get_byte.exit.thread

bytestream2_get_byte.exit.thread:                 ; preds = %bytestream2_get_be24.exit, %bytestream2_get_byte.exit._crit_edge
  %.pre-phi68 = phi i64 [ %.pre67, %bytestream2_get_byte.exit._crit_edge ], [ %8, %bytestream2_get_be24.exit ]
  %42 = phi ptr [ %38, %bytestream2_get_byte.exit._crit_edge ], [ %7, %bytestream2_get_be24.exit ]
  %43 = sub i64 %8, %.pre-phi68
  %44 = icmp slt i64 %43, 1
  br i1 %44, label %bytestream2_get_byte.exit41.thread, label %bytestream2_get_byte.exit41

bytestream2_get_byte.exit41:                      ; preds = %bytestream2_get_byte.exit.thread
  %45 = getelementptr inbounds nuw i8, ptr %42, i64 1
  store ptr %45, ptr %0, align 8, !tbaa !40
  %46 = load i8, ptr %42, align 1, !tbaa !30
  %47 = zext i8 %46 to i32
  %.not36 = icmp eq i8 %46, 0
  br i1 %.not36, label %bytestream2_get_byte.exit41._crit_edge, label %55

bytestream2_get_byte.exit41._crit_edge:           ; preds = %bytestream2_get_byte.exit41
  %.pre69 = ptrtoint ptr %45 to i64
  br label %bytestream2_get_byte.exit41.thread

bytestream2_get_byte.exit41.thread:               ; preds = %bytestream2_get_byte.exit.thread, %bytestream2_get_byte.exit41._crit_edge
  %.pre-phi70 = phi i64 [ %.pre69, %bytestream2_get_byte.exit41._crit_edge ], [ %8, %bytestream2_get_byte.exit.thread ]
  %48 = phi ptr [ %45, %bytestream2_get_byte.exit41._crit_edge ], [ %7, %bytestream2_get_byte.exit.thread ]
  %49 = sub i64 %8, %.pre-phi70
  %50 = icmp slt i64 %49, 2
  br i1 %50, label %bytestream2_get_be16.exit.thread, label %bytestream2_get_be16.exit

bytestream2_get_be16.exit.thread:                 ; preds = %bytestream2_get_byte.exit41.thread
  store ptr %7, ptr %0, align 8, !tbaa !63
  br label %.thread

bytestream2_get_be16.exit:                        ; preds = %bytestream2_get_byte.exit41.thread
  %51 = getelementptr inbounds nuw i8, ptr %48, i64 2
  store ptr %51, ptr %0, align 8, !tbaa !40
  %52 = load i16, ptr %48, align 1, !tbaa !30
  %53 = tail call i16 @llvm.bswap.i16(i16 %52)
  %54 = zext i16 %53 to i32
  %.not37 = icmp eq i16 %52, 0
  br i1 %.not37, label %.thread, label %55

55:                                               ; preds = %bytestream2_get_byte.exit41, %bytestream2_get_be16.exit, %bytestream2_get_byte.exit
  %56 = phi ptr [ %38, %bytestream2_get_byte.exit ], [ %45, %bytestream2_get_byte.exit41 ], [ %51, %bytestream2_get_be16.exit ]
  %.023 = phi i32 [ %41, %bytestream2_get_byte.exit ], [ %47, %bytestream2_get_byte.exit41 ], [ %54, %bytestream2_get_be16.exit ]
  %.not65 = icmp eq i32 %.023, 0
  br i1 %.not65, label %.loopexit, label %.lr.ph

.lr.ph:                                           ; preds = %55, %66
  %.260 = phi i32 [ %.3, %66 ], [ %.02263, %55 ]
  %.02459 = phi i32 [ %67, %66 ], [ 0, %55 ]
  %.22758 = phi i32 [ %.328, %66 ], [ %.02562, %55 ]
  %57 = mul nsw i32 %.22758, %4
  %58 = sext i32 %57 to i64
  %59 = getelementptr inbounds i8, ptr %1, i64 %58
  %60 = sext i32 %.260 to i64
  %61 = shl nsw i64 %60, 2
  %62 = getelementptr inbounds nuw i8, ptr %59, i64 %61
  store i32 %.0.i42, ptr %62, align 4, !tbaa !55
  %63 = add nsw i32 %.260, 1
  %.not38 = icmp slt i32 %63, %2
  br i1 %.not38, label %66, label %64

64:                                               ; preds = %.lr.ph
  %65 = add nsw i32 %.22758, 1
  %.not39 = icmp slt i32 %65, %3
  br i1 %.not39, label %66, label %.thread

66:                                               ; preds = %64, %.lr.ph
  %.328 = phi i32 [ %.22758, %.lr.ph ], [ %65, %64 ]
  %.3 = phi i32 [ %63, %.lr.ph ], [ 0, %64 ]
  %67 = add nuw nsw i32 %.02459, 1
  %exitcond.not = icmp eq i32 %67, %.023
  br i1 %exitcond.not, label %.loopexit, label %.lr.ph, !llvm.loop !165

.thread:                                          ; preds = %.loopexit, %bytestream2_get_be16.exit, %64, %5, %bytestream2_get_be16.exit.thread
  ret void
}